target datalayout = "e-m:e-p270:32:32-p271:32:32-p272:64:64-i64:64-i128:128-f80:128-n8:16:32:64-S128"
target triple = "x86_64-unknown-linux-gnu"

%"class.zmq::own_t.base" = type <{ %"class.zmq::object_t.base", [4 x i8], %"struct.zmq::options_t", i8, [7 x i8], %"class.zmq::atomic_counter_t", i64, ptr, %"class.std::set.28", i32 }>
%"class.zmq::object_t.base" = type <{ ptr, ptr, i32 }>
%"struct.zmq::options_t" = type { i32, i32, i64, i8, [256 x i8], i32, i32, i32, i32, i32, i32, i32, i32, i8, %"struct.zmq::atomic_value_t", i32, i32, i32, i32, i32, i32, i64, i32, i32, i8, i32, i8, i8, i8, i8, i8, %"class.std::__cxx11::basic_string", %"class.std::__cxx11::basic_string", %"class.std::__cxx11::basic_string", i32, i32, i32, i32, %"class.std::vector", %"class.std::set", %"class.std::set", %"class.std::set.6", i32, i32, %"class.std::__cxx11::basic_string", %"class.std::__cxx11::basic_string", %"class.std::__cxx11::basic_string", [32 x i8], [32 x i8], [32 x i8], %"class.std::__cxx11::basic_string", %"class.std::__cxx11::basic_string", i32, i32, i8, i32, i8, i32, i8, i16, i32, i32, i32, %"class.std::__cxx11::basic_string", i8, i8, i8, i32, i32, i8, i32, %"class.std::map", i32, %"class.std::__cxx11::basic_string", %"class.std::__cxx11::basic_string", %"class.std::__cxx11::basic_string", %"class.std::__cxx11::basic_string", i8, %"class.std::vector.21", i8, %"class.std::vector.21", i8, %"class.std::vector.21", i8, i32, i8, i32, i32, i32, i32, i32, i8, i32 }
%"struct.zmq::atomic_value_t" = type { %"struct.std::atomic" }
%"struct.std::atomic" = type { %"struct.std::__atomic_base" }
%"struct.std::__atomic_base" = type { i32 }
%"class.std::vector" = type { %"struct.std::_Vector_base" }
%"struct.std::_Vector_base" = type { %"struct.std::_Vector_base<zmq::tcp_address_mask_t, std::allocator<zmq::tcp_address_mask_t>>::_Vector_impl" }
%"struct.std::_Vector_base<zmq::tcp_address_mask_t, std::allocator<zmq::tcp_address_mask_t>>::_Vector_impl" = type { %"struct.std::_Vector_base<zmq::tcp_address_mask_t, std::allocator<zmq::tcp_address_mask_t>>::_Vector_impl_data" }
%"struct.std::_Vector_base<zmq::tcp_address_mask_t, std::allocator<zmq::tcp_address_mask_t>>::_Vector_impl_data" = type { ptr, ptr, ptr }
%"class.std::set" = type { %"class.std::_Rb_tree" }
%"class.std::_Rb_tree" = type { %"struct.std::_Rb_tree<unsigned int, unsigned int, std::_Identity<unsigned int>, std::less<unsigned int>>::_Rb_tree_impl" }
%"struct.std::_Rb_tree<unsigned int, unsigned int, std::_Identity<unsigned int>, std::less<unsigned int>>::_Rb_tree_impl" = type { %"struct.std::_Rb_tree_key_compare", %"struct.std::_Rb_tree_header" }
%"struct.std::_Rb_tree_key_compare" = type { %"struct.std::less" }
%"struct.std::less" = type { i8 }
%"struct.std::_Rb_tree_header" = type { %"struct.std::_Rb_tree_node_base", i64 }
%"struct.std::_Rb_tree_node_base" = type { i32, ptr, ptr, ptr }
%"class.std::set.6" = type { %"class.std::_Rb_tree.7" }
%"class.std::_Rb_tree.7" = type { %"struct.std::_Rb_tree<int, int, std::_Identity<int>, std::less<int>>::_Rb_tree_impl" }
%"struct.std::_Rb_tree<int, int, std::_Identity<int>, std::less<int>>::_Rb_tree_impl" = type { %"struct.std::_Rb_tree_key_compare.11", %"struct.std::_Rb_tree_header" }
%"struct.std::_Rb_tree_key_compare.11" = type { %"struct.std::less.12" }
%"struct.std::less.12" = type { i8 }
%"class.std::map" = type { %"class.std::_Rb_tree.14" }
%"class.std::_Rb_tree.14" = type { %"struct.std::_Rb_tree<std::__cxx11::basic_string<char>, std::pair<const std::__cxx11::basic_string<char>, std::__cxx11::basic_string<char>>, std::_Select1st<std::pair<const std::__cxx11::basic_string<char>, std::__cxx11::basic_string<char>>>, std::less<std::__cxx11::basic_string<char>>>::_Rb_tree_impl" }
%"struct.std::_Rb_tree<std::__cxx11::basic_string<char>, std::pair<const std::__cxx11::basic_string<char>, std::__cxx11::basic_string<char>>, std::_Select1st<std::pair<const std::__cxx11::basic_string<char>, std::__cxx11::basic_string<char>>>, std::less<std::__cxx11::basic_string<char>>>::_Rb_tree_impl" = type { %"struct.std::_Rb_tree_key_compare.18", %"struct.std::_Rb_tree_header" }
%"struct.std::_Rb_tree_key_compare.18" = type { %"struct.std::less.19" }
%"struct.std::less.19" = type { i8 }
%"class.std::vector.21" = type { %"struct.std::_Vector_base.22" }
%"struct.std::_Vector_base.22" = type { %"struct.std::_Vector_base<unsigned char, std::allocator<unsigned char>>::_Vector_impl" }
%"struct.std::_Vector_base<unsigned char, std::allocator<unsigned char>>::_Vector_impl" = type { %"struct.std::_Vector_base<unsigned char, std::allocator<unsigned char>>::_Vector_impl_data" }
%"struct.std::_Vector_base<unsigned char, std::allocator<unsigned char>>::_Vector_impl_data" = type { ptr, ptr, ptr }
%"class.zmq::atomic_counter_t" = type { %"struct.std::atomic.26", [4 x i8] }
%"struct.std::atomic.26" = type { %"struct.std::__atomic_base.27" }
%"struct.std::__atomic_base.27" = type { i32 }
%"class.std::set.28" = type { %"class.std::_Rb_tree.29" }
%"class.std::_Rb_tree.29" = type { %"struct.std::_Rb_tree<zmq::own_t *, zmq::own_t *, std::_Identity<zmq::own_t *>, std::less<zmq::own_t *>>::_Rb_tree_impl" }
%"struct.std::_Rb_tree<zmq::own_t *, zmq::own_t *, std::_Identity<zmq::own_t *>, std::less<zmq::own_t *>>::_Rb_tree_impl" = type { %"struct.std::_Rb_tree_key_compare.33", %"struct.std::_Rb_tree_header" }
%"struct.std::_Rb_tree_key_compare.33" = type { %"struct.std::less.34" }
%"struct.std::less.34" = type { i8 }
%"struct.zmq::i_poll_events" = type { ptr }
%"struct.zmq::i_pipe_events" = type { ptr }
%"class.std::__cxx11::basic_string" = type { %"struct.std::__cxx11::basic_string<char>::_Alloc_hider", i64, %union.anon }
%"struct.std::__cxx11::basic_string<char>::_Alloc_hider" = type { ptr }
%union.anon = type { i64, [8 x i8] }
%"class.zmq::req_session_t" = type <{ %"class.zmq::session_base_t", i32, [4 x i8] }>
%"class.zmq::session_base_t" = type { %"class.zmq::own_t.base", %"class.zmq::io_object_t", %"struct.zmq::i_pipe_events", i8, ptr, ptr, %"class.std::set.60", i8, i8, ptr, ptr, ptr, i8, ptr, %"class.std::__cxx11::basic_string" }
%"class.zmq::io_object_t" = type { %"struct.zmq::i_poll_events", ptr }
%"class.std::set.60" = type { %"class.std::_Rb_tree.61" }
%"class.std::_Rb_tree.61" = type { %"struct.std::_Rb_tree<zmq::pipe_t *, zmq::pipe_t *, std::_Identity<zmq::pipe_t *>, std::less<zmq::pipe_t *>>::_Rb_tree_impl" }
%"struct.std::_Rb_tree<zmq::pipe_t *, zmq::pipe_t *, std::_Identity<zmq::pipe_t *>, std::less<zmq::pipe_t *>>::_Rb_tree_impl" = type { %"struct.std::_Rb_tree_key_compare.65", %"struct.std::_Rb_tree_header" }
%"struct.std::_Rb_tree_key_compare.65" = type { %"struct.std::less.66" }
%"struct.std::less.66" = type { i8 }

; Function Attrs: mustprogress uwtable
define noundef i32 @_ZN3zmq13req_session_t8push_msgEPNS_5msg_tE(ptr noundef nonnull align 8 dereferenceable(1632) %this, ptr noundef %msg_) unnamed_addr #0 align 2 {
entry:
  %retval = alloca i32, align 4
  %this.addr = alloca ptr, align 8
  %msg_.addr = alloca ptr, align 8
  store ptr %this, ptr %this.addr, align 8
  store ptr %msg_, ptr %msg_.addr, align 8
  %this1 = load ptr, ptr %this.addr, align 8
  %0 = load ptr, ptr %msg_.addr, align 8
  %call = call noundef zeroext i8 @_ZNK3zmq5msg_t5flagsEv(ptr noundef nonnull align 8 dereferenceable(64) %0)
  %conv = zext i8 %call to i32
  %and = and i32 %conv, 2
  %conv2 = sext i32 %and to i64
  %tobool = icmp ne i64 %conv2, 0
  br i1 %tobool, label %if.then, label %if.end

if.then:                                          ; preds = %entry
  store i32 0, ptr %retval, align 4
  br label %return

if.end:                                           ; preds = %entry
  %_state = getelementptr inbounds %"class.zmq::req_session_t", ptr %this1, i32 0, i32 1
  %1 = load i32, ptr %_state, align 8
  switch i32 %1, label %sw.epilog [
    i32 0, label %sw.bb
    i32 1, label %sw.bb19
    i32 2, label %sw.bb29
  ]

sw.bb:                                            ; preds = %if.end
  %2 = load ptr, ptr %msg_.addr, align 8
  %call3 = call noundef zeroext i8 @_ZNK3zmq5msg_t5flagsEv(ptr noundef nonnull align 8 dereferenceable(64) %2)
  %conv4 = zext i8 %call3 to i32
  %cmp = icmp eq i32 %conv4, 1
  br i1 %cmp, label %if.then5, label %if.end18

if.then5:                                         ; preds = %sw.bb
  %3 = load ptr, ptr %msg_.addr, align 8
  %call6 = call noundef i64 @_ZNK3zmq5msg_t4sizeEv(ptr noundef nonnull align 8 dereferenceable(64) %3)
  %cmp7 = icmp eq i64 %call6, 4
  br i1 %cmp7, label %if.then8, label %if.end11

if.then8:                                         ; preds = %if.then5
  %_state9 = getelementptr inbounds %"class.zmq::req_session_t", ptr %this1, i32 0, i32 1
  store i32 1, ptr %_state9, align 8
  %4 = load ptr, ptr %msg_.addr, align 8
  %call10 = call noundef i32 @_ZN3zmq14session_base_t8push_msgEPNS_5msg_tE(ptr noundef nonnull align 8 dereferenceable(1624) %this1, ptr noundef %4)
  store i32 %call10, ptr %retval, align 4
  br label %return

if.end11:                                         ; preds = %if.then5
  %5 = load ptr, ptr %msg_.addr, align 8
  %call12 = call noundef i64 @_ZNK3zmq5msg_t4sizeEv(ptr noundef nonnull align 8 dereferenceable(64) %5)
  %cmp13 = icmp eq i64 %call12, 0
  br i1 %cmp13, label %if.then14, label %if.end17

if.then14:                                        ; preds = %if.end11
  %_state15 = getelementptr inbounds %"class.zmq::req_session_t", ptr %this1, i32 0, i32 1
  store i32 2, ptr %_state15, align 8
  %6 = load ptr, ptr %msg_.addr, align 8
  %call16 = call noundef i32 @_ZN3zmq14session_base_t8push_msgEPNS_5msg_tE(ptr noundef nonnull align 8 dereferenceable(1624) %this1, ptr noundef %6)
  store i32 %call16, ptr %retval, align 4
  br label %return

if.end17:                                         ; preds = %if.end11
  br label %if.end18

if.end18:                                         ; preds = %if.end17, %sw.bb
  br label %sw.epilog

sw.bb19:                                          ; preds = %if.end
  %7 = load ptr, ptr %msg_.addr, align 8
  %call20 = call noundef zeroext i8 @_ZNK3zmq5msg_t5flagsEv(ptr noundef nonnull align 8 dereferenceable(64) %7)
  %conv21 = zext i8 %call20 to i32
  %cmp22 = icmp eq i32 %conv21, 1
  br i1 %cmp22, label %land.lhs.true, label %if.end28

land.lhs.true:                                    ; preds = %sw.bb19
  %8 = load ptr, ptr %msg_.addr, align 8
  %call23 = call noundef i64 @_ZNK3zmq5msg_t4sizeEv(ptr noundef nonnull align 8 dereferenceable(64) %8)
  %cmp24 = icmp eq i64 %call23, 0
  br i1 %cmp24, label %if.then25, label %if.end28

if.then25:                                        ; preds = %land.lhs.true
  %_state26 = getelementptr inbounds %"class.zmq::req_session_t", ptr %this1, i32 0, i32 1
  store i32 2, ptr %_state26, align 8
  %9 = load ptr, ptr %msg_.addr, align 8
  %call27 = call noundef i32 @_ZN3zmq14session_base_t8push_msgEPNS_5msg_tE(ptr noundef nonnull align 8 dereferenceable(1624) %this1, ptr noundef %9)
  store i32 %call27, ptr %retval, align 4
  br label %return

if.end28:                                         ; preds = %land.lhs.true, %sw.bb19
  br label %sw.epilog

sw.bb29:                                          ; preds = %if.end
  %10 = load ptr, ptr %msg_.addr, align 8
  %call30 = call noundef zeroext i8 @_ZNK3zmq5msg_t5flagsEv(ptr noundef nonnull align 8 dereferenceable(64) %10)
  %conv31 = zext i8 %call30 to i32
  %cmp32 = icmp eq i32 %conv31, 1
  br i1 %cmp32, label %if.then33, label %if.end35

if.then33:                                        ; preds = %sw.bb29
  %11 = load ptr, ptr %msg_.addr, align 8
  %call34 = call noundef i32 @_ZN3zmq14session_base_t8push_msgEPNS_5msg_tE(ptr noundef nonnull align 8 dereferenceable(1624) %this1, ptr noundef %11)
  store i32 %call34, ptr %retval, align 4
  br label %return

if.end35:                                         ; preds = %sw.bb29
  %12 = load ptr, ptr %msg_.addr, align 8
  %call36 = call noundef zeroext i8 @_ZNK3zmq5msg_t5flagsEv(ptr noundef nonnull align 8 dereferenceable(64) %12)
  %conv37 = zext i8 %call36 to i32
  %cmp38 = icmp eq i32 %conv37, 0
  br i1 %cmp38, label %if.then39, label %if.end42

if.then39:                                        ; preds = %if.end35
  %_state40 = getelementptr inbounds %"class.zmq::req_session_t", ptr %this1, i32 0, i32 1
  store i32 0, ptr %_state40, align 8
  %13 = load ptr, ptr %msg_.addr, align 8
  %call41 = call noundef i32 @_ZN3zmq14session_base_t8push_msgEPNS_5msg_tE(ptr noundef nonnull align 8 dereferenceable(1624) %this1, ptr noundef %13)
  store i32 %call41, ptr %retval, align 4
  br label %return

if.end42:                                         ; preds = %if.end35
  br label %sw.epilog

sw.epilog:                                        ; preds = %if.end42, %if.end28, %if.end18, %if.end
  %call43 = call ptr @__errno_location() #10
  store i32 14, ptr %call43, align 4
  store i32 -1, ptr %retval, align 4
  br label %return

return:                                           ; preds = %sw.epilog, %if.then39, %if.then33, %if.then25, %if.then14, %if.then8, %if.then
  %14 = load i32, ptr %retval, align 4
  ret i32 %14
}