; Function Attrs: mustprogress uwtable
define noundef i32 @_ZN3zmq13req_session_t8push_msgEPNS_5msg_tE(ptr noundef nonnull align 8 dereferenceable(1632) %this, ptr noundef nonnull %msg_) unnamed_addr #0 align 2 {
entry:
  %call = tail call noundef zeroext i8 @_ZNK3zmq5msg_t5flagsEv(ptr noundef nonnull align 8 dereferenceable(64) %msg_)
  %0 = and i8 %call, 2
  %tobool.not = icmp eq i8 %0, 0
  br i1 %tobool.not, label %if.end, label %return

if.end:                                           ; preds = %entry
  %_state = getelementptr inbounds i8, ptr %this, i64 1624
  %1 = load i32, ptr %_state, align 8
  switch i32 %1, label %sw.epilog [
    i32 0, label %sw.bb
    i32 1, label %sw.bb19
    i32 2, label %sw.bb29
  ]

sw.bb:                                            ; preds = %if.end
  %call3 = tail call noundef zeroext i8 @_ZNK3zmq5msg_t5flagsEv(ptr noundef nonnull align 8 dereferenceable(64) %msg_)
  %cmp = icmp eq i8 %call3, 1
  br i1 %cmp, label %if.then5, label %sw.epilog

if.then5:                                         ; preds = %sw.bb
  %call6 = tail call noundef i64 @_ZNK3zmq5msg_t4sizeEv(ptr noundef nonnull align 8 dereferenceable(64) %msg_)
  %cmp7 = icmp eq i64 %call6, 4
  br i1 %cmp7, label %if.then8, label %if.end11

if.then8:                                         ; preds = %if.then5
  store i32 1, ptr %_state, align 8
  %call10 = tail call noundef i32 @_ZN3zmq14session_base_t8push_msgEPNS_5msg_tE(ptr noundef nonnull align 8 dereferenceable(1624) %this, ptr noundef nonnull %msg_)
  br label %return

if.end11:                                         ; preds = %if.then5
  %call12 = tail call noundef i64 @_ZNK3zmq5msg_t4sizeEv(ptr noundef nonnull align 8 dereferenceable(64) %msg_)
  %cmp13 = icmp eq i64 %call12, 0
  br i1 %cmp13, label %if.then14, label %sw.epilog

if.then14:                                        ; preds = %if.end11
  store i32 2, ptr %_state, align 8
  %call16 = tail call noundef i32 @_ZN3zmq14session_base_t8push_msgEPNS_5msg_tE(ptr noundef nonnull align 8 dereferenceable(1624) %this, ptr noundef nonnull %msg_)
  br label %return

sw.bb19:                                          ; preds = %if.end
  %call20 = tail call noundef zeroext i8 @_ZNK3zmq5msg_t5flagsEv(ptr noundef nonnull align 8 dereferenceable(64) %msg_)
  %cmp22 = icmp eq i8 %call20, 1
  br i1 %cmp22, label %land.lhs.true, label %sw.epilog

land.lhs.true:                                    ; preds = %sw.bb19
  %call23 = tail call noundef i64 @_ZNK3zmq5msg_t4sizeEv(ptr noundef nonnull align 8 dereferenceable(64) %msg_)
  %cmp24 = icmp eq i64 %call23, 0
  br i1 %cmp24, label %if.then25, label %sw.epilog

if.then25:                                        ; preds = %land.lhs.true
  store i32 2, ptr %_state, align 8
  %call27 = tail call noundef i32 @_ZN3zmq14session_base_t8push_msgEPNS_5msg_tE(ptr noundef nonnull align 8 dereferenceable(1624) %this, ptr noundef nonnull %msg_)
  br label %return

sw.bb29:                                          ; preds = %if.end
  %call30 = tail call noundef zeroext i8 @_ZNK3zmq5msg_t5flagsEv(ptr noundef nonnull align 8 dereferenceable(64) %msg_)
  %cmp32 = icmp eq i8 %call30, 1
  br i1 %cmp32, label %if.then33, label %if.end35

if.then33:                                        ; preds = %sw.bb29
  %call34 = tail call noundef i32 @_ZN3zmq14session_base_t8push_msgEPNS_5msg_tE(ptr noundef nonnull align 8 dereferenceable(1624) %this, ptr noundef nonnull %msg_)
  br label %return

if.end35:                                         ; preds = %sw.bb29
  %call36 = tail call noundef zeroext i8 @_ZNK3zmq5msg_t5flagsEv(ptr noundef nonnull align 8 dereferenceable(64) %msg_)
  %cmp38 = icmp eq i8 %call36, 0
  br i1 %cmp38, label %if.then39, label %sw.epilog

if.then39:                                        ; preds = %if.end35
  store i32 0, ptr %_state, align 8
  %call41 = tail call noundef i32 @_ZN3zmq14session_base_t8push_msgEPNS_5msg_tE(ptr noundef nonnull align 8 dereferenceable(1624) %this, ptr noundef nonnull %msg_)
  br label %return

sw.epilog:                                        ; preds = %if.end35, %sw.bb19, %land.lhs.true, %sw.bb, %if.end11, %if.end
  %call43 = tail call ptr @__errno_location() #11
  store i32 14, ptr %call43, align 4
  br label %return

return:                                           ; preds = %entry, %sw.epilog, %if.then39, %if.then33, %if.then25, %if.then14, %if.then8
  %retval.0 = phi i32 [ -1, %sw.epilog ], [ %call34, %if.then33 ], [ %call41, %if.then39 ], [ %call27, %if.then25 ], [ %call10, %if.then8 ], [ %call16, %if.then14 ], [ 0, %entry ]
  ret i32 %retval.0
}